target datalayout = "e-m:e-p270:32:32-p271:32:32-p272:64:64-i64:64-i128:128-f80:128-n8:16:32:64-S128"
target triple = "x86_64-pc-linux-gnu"

%struct._zend_executor_globals = type { %struct._zval_struct, %struct._zval_struct, [32 x ptr], ptr, ptr, %struct._zend_array, %struct._zend_array, ptr, i32, i8, %struct._zval_struct, i32, ptr, ptr, ptr, ptr, ptr, ptr, i64, ptr, ptr, i32, ptr, i32, i64, i32, i32, i32, i8, i8, %struct.zend_atomic_bool_s, %struct.zend_atomic_bool_s, ptr, i64, ptr, ptr, %struct._zend_array, %struct._zend_array, i32, i8, %struct._zval_struct, %struct._zval_struct, %struct._zend_stack, %struct._zend_stack, %struct._zend_stack, ptr, i32, i32, i64, ptr, ptr, ptr, %struct._zend_objects_store, %struct._zend_lazy_objects_store, ptr, ptr, ptr, [3 x %struct._zend_op], ptr, i8, i8, i64, i32, i32, ptr, [16 x %struct._HashTableIterator], ptr, %union._zend_function, %struct._zend_op, %struct._zend_array, i64, %struct.zend_get_gc_buffer, ptr, ptr, ptr, i64, i8, i32, ptr, ptr, i64, %struct._zend_call_stack, i64, i64, %struct._zend_strtod_state, [6 x ptr] }
%struct.zend_atomic_bool_s = type { i8 }
%struct._zval_struct = type { %union._zend_value, %union.anon, %union.anon.2 }
%union._zend_value = type { i64 }
%union.anon = type { i32 }
%union.anon.2 = type { i32 }
%struct._zend_stack = type { i32, i32, i32, ptr }
%struct._zend_objects_store = type { ptr, i32, i32, i32 }
%struct._zend_lazy_objects_store = type { %struct._zend_array }
%struct._HashTableIterator = type { ptr, i32, i32 }
%union._zend_function = type { %struct._zend_op_array }
%struct._zend_op_array = type { i8, [3 x i8], i32, ptr, ptr, ptr, i32, i32, ptr, ptr, ptr, ptr, i32, ptr, i32, i32, i32, ptr, ptr, ptr, ptr, ptr, i32, i32, ptr, ptr, ptr, i32, i32, i32, i32, ptr, ptr, [6 x ptr] }
%struct._zend_op = type { ptr, %union._znode_op, %union._znode_op, %union._znode_op, i32, i32, i8, i8, i8, i8 }
%union._znode_op = type { i32 }
%struct._zend_array = type { %struct._zend_refcounted_h, %union.anon.4, i32, %union.anon.6, i32, i32, i32, i32, i64, ptr }
%struct._zend_refcounted_h = type { i32, %union.anon.3 }
%union.anon.3 = type { i32 }
%union.anon.4 = type { i32 }
%union.anon.6 = type { ptr }
%struct.zend_get_gc_buffer = type { ptr, ptr, ptr }
%struct._zend_call_stack = type { ptr, i64 }
%struct._zend_strtod_state = type { [8 x ptr], ptr, ptr }
%struct._zend_execute_data = type { ptr, ptr, ptr, ptr, %struct._zval_struct, ptr, ptr, ptr, ptr }
%struct._spl_dllist_object = type { ptr, ptr, i32, i32, ptr, ptr, ptr, ptr, ptr, ptr, %struct._zend_object }
%struct._zend_object = type { %struct._zend_refcounted_h, i32, i32, ptr, ptr, ptr, [1 x %struct._zval_struct] }
%struct._spl_ptr_llist = type { ptr, ptr, i32 }
%struct._spl_ptr_llist_element = type { ptr, ptr, %struct._zval_struct }
%struct._zend_refcounted = type { %struct._zend_refcounted_h }
%struct.anon.0 = type { i8, i8, %union.anon.1 }
%union.anon.1 = type { i16 }

@executor_globals = external global %struct._zend_executor_globals, align 8
@spl_ce_SplDoublyLinkedList = dso_local global ptr null, align 8
@.str.15 = private unnamed_addr constant [6 x i8] c"flags\00", align 1
@.str.16 = private unnamed_addr constant [7 x i8] c"dllist\00", align 1

; Function Attrs: alwaysinline nounwind uwtable
define internal zeroext i1 @zend_object_is_lazy(ptr noundef %0) #6 {
  %2 = alloca ptr, align 8
  store ptr %0, ptr %2, align 8, !tbaa !54
  %3 = load ptr, ptr %2, align 8, !tbaa !54
  %4 = getelementptr inbounds nuw %struct._zend_object, ptr %3, i32 0, i32 2
  %5 = load i32, ptr %4, align 4, !tbaa !138
  %6 = and i32 %5, -1073741824
  %7 = icmp ne i32 %6, 0
  ret i1 %7
}

; Function Attrs: alwaysinline nounwind uwtable
define internal i32 @zend_gc_addref(ptr noundef %0) #6 {
  %2 = alloca ptr, align 8
  store ptr %0, ptr %2, align 8, !tbaa !77
  br label %3

3:                                                ; preds = %1
  br label %4

4:                                                ; preds = %3
  %5 = load ptr, ptr %2, align 8, !tbaa !77
  %6 = getelementptr inbounds nuw %struct._zend_refcounted_h, ptr %5, i32 0, i32 0
  %7 = load i32, ptr %6, align 4, !tbaa !79
  %8 = add i32 %7, 1
  store i32 %8, ptr %6, align 4, !tbaa !79
  ret i32 %8
}

; Function Attrs: alwaysinline nounwind uwtable
define internal zeroext i1 @zend_lazy_object_must_init(ptr noundef %0) #6 {
  %2 = alloca ptr, align 8
  store ptr %0, ptr %2, align 8, !tbaa !54
  %3 = load ptr, ptr %2, align 8, !tbaa !54
  %4 = call zeroext i1 @zend_object_is_lazy(ptr noundef %3)
  ret i1 %4
}

; Function Attrs: alwaysinline nounwind uwtable
define internal i32 @zval_addref_p(ptr noundef %0) #6 {
  %2 = alloca ptr, align 8
  store ptr %0, ptr %2, align 8, !tbaa !9
  %3 = load ptr, ptr %2, align 8, !tbaa !9
  %4 = getelementptr inbounds nuw %struct._zval_struct, ptr %3, i32 0, i32 1
  %5 = getelementptr inbounds nuw %struct.anon.0, ptr %4, i32 0, i32 1
  %6 = load i8, ptr %5, align 1, !tbaa !11
  %7 = zext i8 %6 to i32
  %8 = icmp ne i32 %7, 0
  call void @llvm.assume(i1 %8)
  %9 = load ptr, ptr %2, align 8, !tbaa !9
  %10 = getelementptr inbounds nuw %struct._zval_struct, ptr %9, i32 0, i32 0
  %11 = load ptr, ptr %10, align 8, !tbaa !11
  %12 = getelementptr inbounds nuw %struct._zend_refcounted, ptr %11, i32 0, i32 0
  %13 = call i32 @zend_gc_addref(ptr noundef %12)
  ret i32 %13
}

; Function Attrs: alwaysinline nounwind uwtable
define internal i32 @add_index_zval(ptr noundef %0, i64 noundef %1, ptr noundef %2) #6 {
  %4 = alloca ptr, align 8
  %5 = alloca i64, align 8
  %6 = alloca ptr, align 8
  store ptr %0, ptr %4, align 8, !tbaa !9
  store i64 %1, ptr %5, align 8, !tbaa !68
  store ptr %2, ptr %6, align 8, !tbaa !9
  %7 = load ptr, ptr %4, align 8, !tbaa !9
  %8 = getelementptr inbounds nuw %struct._zval_struct, ptr %7, i32 0, i32 0
  %9 = load ptr, ptr %8, align 8, !tbaa !11
  %10 = load i64, ptr %5, align 8, !tbaa !68
  %11 = load ptr, ptr %6, align 8, !tbaa !9
  %12 = call ptr @zend_hash_index_update(ptr noundef %9, i64 noundef %10, ptr noundef %11)
  %13 = icmp ne ptr %12, null
  %14 = select i1 %13, i32 0, i32 -1
  ret i32 %14
}

; Function Attrs: alwaysinline nounwind uwtable
define internal i32 @zend_hash_num_elements(ptr noundef %0) #6 {
  %2 = alloca ptr, align 8
  store ptr %0, ptr %2, align 8, !tbaa !93
  %3 = load ptr, ptr %2, align 8, !tbaa !93
  %4 = getelementptr inbounds nuw %struct._zend_array, ptr %3, i32 0, i32 5
  %5 = load i32, ptr %4, align 4, !tbaa !137
  ret i32 %5
}

; Function Attrs: alwaysinline nounwind uwtable
define internal ptr @zend_std_get_properties_ex(ptr noundef %0) #6 {
  %2 = alloca ptr, align 8
  %3 = alloca ptr, align 8
  store ptr %0, ptr %3, align 8, !tbaa !54
  %4 = load ptr, ptr %3, align 8, !tbaa !54
  %5 = call zeroext i1 @zend_lazy_object_must_init(ptr noundef %4)
  %6 = xor i1 %5, true
  %7 = xor i1 %6, true
  %8 = zext i1 %7 to i32
  %9 = sext i32 %8 to i64
  %10 = call i64 @llvm.expect.i64(i64 %9, i64 0)
  %11 = icmp ne i64 %10, 0
  br i1 %11, label %12, label %15

12:                                               ; preds = %1
  %13 = load ptr, ptr %3, align 8, !tbaa !54
  %14 = call ptr @zend_lazy_object_get_properties(ptr noundef %13)
  store ptr %14, ptr %2, align 8
  br label %27

15:                                               ; preds = %1
  %16 = load ptr, ptr %3, align 8, !tbaa !54
  %17 = getelementptr inbounds nuw %struct._zend_object, ptr %16, i32 0, i32 5
  %18 = load ptr, ptr %17, align 8, !tbaa !136
  %19 = icmp ne ptr %18, null
  br i1 %19, label %23, label %20

20:                                               ; preds = %15
  %21 = load ptr, ptr %3, align 8, !tbaa !54
  %22 = call ptr @rebuild_object_properties_internal(ptr noundef %21)
  store ptr %22, ptr %2, align 8
  br label %27

23:                                               ; preds = %15
  %24 = load ptr, ptr %3, align 8, !tbaa !54
  %25 = getelementptr inbounds nuw %struct._zend_object, ptr %24, i32 0, i32 5
  %26 = load ptr, ptr %25, align 8, !tbaa !136
  store ptr %26, ptr %2, align 8
  br label %27

27:                                               ; preds = %23, %20, %12
  %28 = load ptr, ptr %2, align 8
  ret ptr %28
}

; Function Attrs: inlinehint nounwind uwtable
define internal ptr @spl_dllist_from_obj(ptr noundef %0) #4 {
  %2 = alloca ptr, align 8
  store ptr %0, ptr %2, align 8, !tbaa !54
  %3 = load ptr, ptr %2, align 8, !tbaa !54
  %4 = getelementptr inbounds i8, ptr %3, i64 -72
  ret ptr %4
}

; Function Attrs: inlinehint nounwind uwtable
define internal ptr @spl_dllist_object_get_debug_info(ptr noundef %0) #4 {
  %2 = alloca ptr, align 8
  %3 = alloca ptr, align 8
  %4 = alloca ptr, align 8
  %5 = alloca %struct._zval_struct, align 8
  %6 = alloca %struct._zval_struct, align 8
  %7 = alloca ptr, align 8
  %8 = alloca ptr, align 8
  %9 = alloca ptr, align 8
  %10 = alloca ptr, align 8
  %11 = alloca ptr, align 8
  %12 = alloca i64, align 8
  %13 = alloca ptr, align 8
  store ptr %0, ptr %2, align 8, !tbaa !54
  call void @llvm.lifetime.start.p0(i64 8, ptr %3) #14
  %14 = load ptr, ptr %2, align 8, !tbaa !54
  %15 = call ptr @spl_dllist_from_obj(ptr noundef %14)
  store ptr %15, ptr %3, align 8, !tbaa !45
  call void @llvm.lifetime.start.p0(i64 8, ptr %4) #14
  %16 = load ptr, ptr %3, align 8, !tbaa !45
  %17 = getelementptr inbounds nuw %struct._spl_dllist_object, ptr %16, i32 0, i32 0
  %18 = load ptr, ptr %17, align 8, !tbaa !47
  %19 = getelementptr inbounds nuw %struct._spl_ptr_llist, ptr %18, i32 0, i32 0
  %20 = load ptr, ptr %19, align 8, !tbaa !65
  store ptr %20, ptr %4, align 8, !tbaa !56
  call void @llvm.lifetime.start.p0(i64 16, ptr %5) #14
  call void @llvm.lifetime.start.p0(i64 16, ptr %6) #14
  call void @llvm.lifetime.start.p0(i64 8, ptr %7) #14
  call void @llvm.lifetime.start.p0(i64 8, ptr %8) #14
  %21 = load ptr, ptr %3, align 8, !tbaa !45
  %22 = getelementptr inbounds nuw %struct._spl_dllist_object, ptr %21, i32 0, i32 10
  %23 = call ptr @zend_std_get_properties_ex(ptr noundef %22)
  store ptr %23, ptr %8, align 8, !tbaa !93
  %24 = load ptr, ptr %8, align 8, !tbaa !93
  %25 = call i32 @zend_hash_num_elements(ptr noundef %24)
  %26 = add i32 %25, 2
  %27 = call ptr @_zend_new_array(i32 noundef %26)
  store ptr %27, ptr %7, align 8, !tbaa !93
  %28 = load ptr, ptr %7, align 8, !tbaa !93
  %29 = load ptr, ptr %8, align 8, !tbaa !93
  call void @zend_hash_copy(ptr noundef %28, ptr noundef %29, ptr noundef @zval_add_ref)
  br label %30

30:                                               ; preds = %1
  call void @llvm.lifetime.start.p0(i64 8, ptr %9) #14
  store ptr %5, ptr %9, align 8, !tbaa !9
  %31 = load ptr, ptr %3, align 8, !tbaa !45
  %32 = getelementptr inbounds nuw %struct._spl_dllist_object, ptr %31, i32 0, i32 3
  %33 = load i32, ptr %32, align 4, !tbaa !73
  %34 = sext i32 %33 to i64
  %35 = load ptr, ptr %9, align 8, !tbaa !9
  %36 = getelementptr inbounds nuw %struct._zval_struct, ptr %35, i32 0, i32 0
  store i64 %34, ptr %36, align 8, !tbaa !11
  %37 = load ptr, ptr %9, align 8, !tbaa !9
  %38 = getelementptr inbounds nuw %struct._zval_struct, ptr %37, i32 0, i32 1
  store i32 4, ptr %38, align 8, !tbaa !11
  call void @llvm.lifetime.end.p0(i64 8, ptr %9) #14
  br label %39

39:                                               ; preds = %30
  br label %40

40:                                               ; preds = %39
  %41 = load ptr, ptr @spl_ce_SplDoublyLinkedList, align 8, !tbaa !67
  %42 = load ptr, ptr %7, align 8, !tbaa !93
  call void @spl_set_private_debug_info_property(ptr noundef %41, ptr noundef @.str.15, i64 noundef 5, ptr noundef %42, ptr noundef %5)
  br label %43

43:                                               ; preds = %40
  call void @llvm.lifetime.start.p0(i64 8, ptr %10) #14
  %44 = call ptr @_zend_new_array_0()
  store ptr %44, ptr %10, align 8, !tbaa !93
  call void @llvm.lifetime.start.p0(i64 8, ptr %11) #14
  store ptr %6, ptr %11, align 8, !tbaa !9
  %45 = load ptr, ptr %10, align 8, !tbaa !93
  %46 = load ptr, ptr %11, align 8, !tbaa !9
  %47 = getelementptr inbounds nuw %struct._zval_struct, ptr %46, i32 0, i32 0
  store ptr %45, ptr %47, align 8, !tbaa !11
  %48 = load ptr, ptr %11, align 8, !tbaa !9
  %49 = getelementptr inbounds nuw %struct._zval_struct, ptr %48, i32 0, i32 1
  store i32 775, ptr %49, align 8, !tbaa !11
  call void @llvm.lifetime.end.p0(i64 8, ptr %11) #14
  call void @llvm.lifetime.end.p0(i64 8, ptr %10) #14
  br label %50

50:                                               ; preds = %43
  br label %51

51:                                               ; preds = %50
  call void @llvm.lifetime.start.p0(i64 8, ptr %12) #14
  store i64 0, ptr %12, align 8, !tbaa !68
  br label %52

52:                                               ; preds = %74, %51
  %53 = load ptr, ptr %4, align 8, !tbaa !56
  %54 = icmp ne ptr %53, null
  br i1 %54, label %55, label %78

55:                                               ; preds = %52
  call void @llvm.lifetime.start.p0(i64 8, ptr %13) #14
  %56 = load ptr, ptr %4, align 8, !tbaa !56
  %57 = getelementptr inbounds nuw %struct._spl_ptr_llist_element, ptr %56, i32 0, i32 1
  %58 = load ptr, ptr %57, align 8, !tbaa !61
  store ptr %58, ptr %13, align 8, !tbaa !56
  %59 = load i64, ptr %12, align 8, !tbaa !68
  %60 = load ptr, ptr %4, align 8, !tbaa !56
  %61 = getelementptr inbounds nuw %struct._spl_ptr_llist_element, ptr %60, i32 0, i32 2
  %62 = call i32 @add_index_zval(ptr noundef %6, i64 noundef %59, ptr noundef %61)
  %63 = load ptr, ptr %4, align 8, !tbaa !56
  %64 = getelementptr inbounds nuw %struct._spl_ptr_llist_element, ptr %63, i32 0, i32 2
  %65 = getelementptr inbounds nuw %struct._zval_struct, ptr %64, i32 0, i32 1
  %66 = getelementptr inbounds nuw %struct.anon.0, ptr %65, i32 0, i32 1
  %67 = load i8, ptr %66, align 1, !tbaa !11
  %68 = zext i8 %67 to i32
  %69 = icmp ne i32 %68, 0
  br i1 %69, label %70, label %74

70:                                               ; preds = %55
  %71 = load ptr, ptr %4, align 8, !tbaa !56
  %72 = getelementptr inbounds nuw %struct._spl_ptr_llist_element, ptr %71, i32 0, i32 2
  %73 = call i32 @zval_addref_p(ptr noundef %72)
  br label %74

74:                                               ; preds = %70, %55
  %75 = load i64, ptr %12, align 8, !tbaa !68
  %76 = add i64 %75, 1
  store i64 %76, ptr %12, align 8, !tbaa !68
  %77 = load ptr, ptr %13, align 8, !tbaa !56
  store ptr %77, ptr %4, align 8, !tbaa !56
  call void @llvm.lifetime.end.p0(i64 8, ptr %13) #14
  br label %52

78:                                               ; preds = %52
  %79 = load ptr, ptr @spl_ce_SplDoublyLinkedList, align 8, !tbaa !67
  %80 = load ptr, ptr %7, align 8, !tbaa !93
  call void @spl_set_private_debug_info_property(ptr noundef %79, ptr noundef @.str.16, i64 noundef 6, ptr noundef %80, ptr noundef %6)
  %81 = load ptr, ptr %7, align 8, !tbaa !93
  call void @llvm.lifetime.end.p0(i64 8, ptr %12) #14
  call void @llvm.lifetime.end.p0(i64 8, ptr %8) #14
  call void @llvm.lifetime.end.p0(i64 8, ptr %7) #14
  call void @llvm.lifetime.end.p0(i64 16, ptr %6) #14
  call void @llvm.lifetime.end.p0(i64 16, ptr %5) #14
  call void @llvm.lifetime.end.p0(i64 8, ptr %4) #14
  call void @llvm.lifetime.end.p0(i64 8, ptr %3) #14
  ret ptr %81
}

; Function Attrs: nounwind uwtable
define hidden void @zim_SplDoublyLinkedList___debugInfo(ptr noundef %0, ptr noundef %1) #0 {
  %3 = alloca ptr, align 8
  %4 = alloca ptr, align 8
  %5 = alloca ptr, align 8
  %6 = alloca ptr, align 8
  store ptr %0, ptr %3, align 8, !tbaa !4
  store ptr %1, ptr %4, align 8, !tbaa !9
  %7 = load ptr, ptr %3, align 8, !tbaa !4
  %8 = getelementptr inbounds nuw %struct._zend_execute_data, ptr %7, i32 0, i32 4
  %9 = getelementptr inbounds nuw %struct._zval_struct, ptr %8, i32 0, i32 2
  %10 = load i32, ptr %9, align 4, !tbaa !11
  %11 = icmp eq i32 %10, 0
  %12 = xor i1 %11, true
  %13 = xor i1 %12, true
  %14 = zext i1 %13 to i32
  %15 = sext i32 %14 to i64
  %16 = call i64 @llvm.expect.i64(i64 %15, i64 1)
  %17 = icmp ne i64 %16, 0
  br i1 %17, label %18, label %19

18:                                               ; preds = %2
  br label %20

19:                                               ; preds = %2
  call void @zend_wrong_parameters_none_error()
  br label %20

20:                                               ; preds = %19, %18
  %21 = phi i32 [ 0, %18 ], [ -1, %19 ]
  %22 = icmp eq i32 %21, -1
  br i1 %22, label %23, label %28

23:                                               ; preds = %20
  br label %24

24:                                               ; preds = %23
  %25 = load ptr, ptr getelementptr inbounds nuw (%struct._zend_executor_globals, ptr @executor_globals, i32 0, i32 54), align 8, !tbaa !12
  %26 = icmp ne ptr %25, null
  call void @llvm.assume(i1 %26)
  br label %43

27:                                               ; No predecessors!
  br label %28

28:                                               ; preds = %27, %20
  br label %29

29:                                               ; preds = %28
  br label %30

30:                                               ; preds = %29
  call void @llvm.lifetime.start.p0(i64 8, ptr %5) #14
  %31 = load ptr, ptr %3, align 8, !tbaa !4
  %32 = getelementptr inbounds nuw %struct._zend_execute_data, ptr %31, i32 0, i32 4
  %33 = getelementptr inbounds nuw %struct._zval_struct, ptr %32, i32 0, i32 0
  %34 = load ptr, ptr %33, align 8, !tbaa !11
  %35 = call ptr @spl_dllist_object_get_debug_info(ptr noundef %34)
  store ptr %35, ptr %5, align 8, !tbaa !93
  call void @llvm.lifetime.start.p0(i64 8, ptr %6) #14
  %36 = load ptr, ptr %4, align 8, !tbaa !9
  store ptr %36, ptr %6, align 8, !tbaa !9
  %37 = load ptr, ptr %5, align 8, !tbaa !93
  %38 = load ptr, ptr %6, align 8, !tbaa !9
  %39 = getelementptr inbounds nuw %struct._zval_struct, ptr %38, i32 0, i32 0
  store ptr %37, ptr %39, align 8, !tbaa !11
  %40 = load ptr, ptr %6, align 8, !tbaa !9
  %41 = getelementptr inbounds nuw %struct._zval_struct, ptr %40, i32 0, i32 1
  store i32 775, ptr %41, align 8, !tbaa !11
  call void @llvm.lifetime.end.p0(i64 8, ptr %6) #14
  call void @llvm.lifetime.end.p0(i64 8, ptr %5) #14
  br label %42

42:                                               ; preds = %30
  br label %43

43:                                               ; preds = %24, %42
  ret void
}