; Function Attrs: nounwind uwtable
define hidden void @zim_SplDoublyLinkedList___debugInfo(ptr noundef readonly captures(none) %0, ptr noundef writeonly captures(none) %1) #0 {
  %3 = alloca %struct._zval_struct, align 8
  %4 = alloca %struct._zval_struct, align 8
  %5 = getelementptr inbounds nuw i8, ptr %0, i64 44
  %6 = load i32, ptr %5, align 4, !tbaa !4
  %.not = icmp eq i32 %6, 0
  br i1 %.not, label %.critedge, label %7, !prof !59

7:                                                ; preds = %2
  tail call void @zend_wrong_parameters_none_error() #13
  %8 = load ptr, ptr getelementptr inbounds nuw (i8, ptr @executor_globals, i64 960), align 8, !tbaa !7
  %9 = icmp ne ptr %8, null
  tail call void @llvm.assume(i1 %9)
  br label %51

.critedge:                                        ; preds = %2
  %10 = getelementptr inbounds nuw i8, ptr %0, i64 32
  %11 = load ptr, ptr %10, align 8, !tbaa !4
  %12 = getelementptr inbounds i8, ptr %11, i64 -72
  %13 = load ptr, ptr %12, align 8, !tbaa !43
  %14 = load ptr, ptr %13, align 8, !tbaa !57
  call void @llvm.lifetime.start.p0(i64 16, ptr nonnull %3) #13
  call void @llvm.lifetime.start.p0(i64 16, ptr nonnull %4) #13
  %15 = getelementptr inbounds nuw i8, ptr %11, i64 12
  %16 = load i32, ptr %15, align 4, !tbaa !88
  %17 = icmp ugt i32 %16, 1073741823
  br i1 %17, label %18, label %20, !prof !61

18:                                               ; preds = %.critedge
  %19 = tail call ptr @zend_lazy_object_get_properties(ptr noundef nonnull %11) #13
  br label %zend_std_get_properties_ex.exit.i

20:                                               ; preds = %.critedge
  %21 = getelementptr inbounds nuw i8, ptr %11, i64 32
  %22 = load ptr, ptr %21, align 8, !tbaa !89
  %.not.i.i = icmp eq ptr %22, null
  br i1 %.not.i.i, label %23, label %zend_std_get_properties_ex.exit.i

23:                                               ; preds = %20
  %24 = tail call ptr @rebuild_object_properties_internal(ptr noundef nonnull %11) #13
  br label %zend_std_get_properties_ex.exit.i

zend_std_get_properties_ex.exit.i:                ; preds = %23, %20, %18
  %.0.i.i = phi ptr [ %19, %18 ], [ %24, %23 ], [ %22, %20 ]
  %25 = getelementptr inbounds nuw i8, ptr %.0.i.i, i64 28
  %26 = load i32, ptr %25, align 4, !tbaa !90
  %27 = add i32 %26, 2
  %28 = tail call ptr @_zend_new_array(i32 noundef %27) #13
  tail call void @zend_hash_copy(ptr noundef %28, ptr noundef %.0.i.i, ptr noundef nonnull @zval_add_ref) #13
  %29 = getelementptr inbounds i8, ptr %11, i64 -52
  %30 = load i32, ptr %29, align 4, !tbaa !66
  %31 = sext i32 %30 to i64
  store i64 %31, ptr %3, align 8, !tbaa !4
  %32 = getelementptr inbounds nuw i8, ptr %3, i64 8
  store i32 4, ptr %32, align 8, !tbaa !4
  %33 = load ptr, ptr @spl_ce_SplDoublyLinkedList, align 8, !tbaa !60
  call void @spl_set_private_debug_info_property(ptr noundef %33, ptr noundef nonnull @.str.15, i64 noundef 5, ptr noundef %28, ptr noundef nonnull %3) #13
  %34 = call ptr @_zend_new_array_0() #13
  store ptr %34, ptr %4, align 8, !tbaa !4
  %35 = getelementptr inbounds nuw i8, ptr %4, i64 8
  store i32 775, ptr %35, align 8, !tbaa !4
  %.not25.i = icmp eq ptr %14, null
  br i1 %.not25.i, label %spl_dllist_object_get_debug_info.exit, label %.lr.ph.i

.lr.ph.i:                                         ; preds = %zend_std_get_properties_ex.exit.i, %47
  %.027.i = phi ptr [ %37, %47 ], [ %14, %zend_std_get_properties_ex.exit.i ]
  %.02226.i = phi i64 [ %48, %47 ], [ 0, %zend_std_get_properties_ex.exit.i ]
  %36 = getelementptr inbounds nuw i8, ptr %.027.i, i64 8
  %37 = load ptr, ptr %36, align 8, !tbaa !55
  %38 = getelementptr inbounds nuw i8, ptr %.027.i, i64 16
  %39 = load ptr, ptr %4, align 8, !tbaa !4
  %40 = call ptr @zend_hash_index_update(ptr noundef %39, i64 noundef %.02226.i, ptr noundef nonnull %38) #13
  %41 = getelementptr inbounds nuw i8, ptr %.027.i, i64 25
  %42 = load i8, ptr %41, align 1, !tbaa !4
  %.not23.i = icmp eq i8 %42, 0
  br i1 %.not23.i, label %47, label %43

43:                                               ; preds = %.lr.ph.i
  %44 = load ptr, ptr %38, align 8, !tbaa !4
  %45 = load i32, ptr %44, align 4, !tbaa !56
  %46 = add i32 %45, 1
  store i32 %46, ptr %44, align 4, !tbaa !56
  br label %47

47:                                               ; preds = %43, %.lr.ph.i
  %48 = add i64 %.02226.i, 1
  %.not.i = icmp eq ptr %37, null
  br i1 %.not.i, label %spl_dllist_object_get_debug_info.exit, label %.lr.ph.i

spl_dllist_object_get_debug_info.exit:            ; preds = %47, %zend_std_get_properties_ex.exit.i
  %49 = load ptr, ptr @spl_ce_SplDoublyLinkedList, align 8, !tbaa !60
  call void @spl_set_private_debug_info_property(ptr noundef %49, ptr noundef nonnull @.str.16, i64 noundef 6, ptr noundef %28, ptr noundef nonnull %4) #13
  call void @llvm.lifetime.end.p0(i64 16, ptr nonnull %4) #13
  call void @llvm.lifetime.end.p0(i64 16, ptr nonnull %3) #13
  store ptr %28, ptr %1, align 8, !tbaa !4
  %50 = getelementptr inbounds nuw i8, ptr %1, i64 8
  store i32 775, ptr %50, align 8, !tbaa !4
  br label %51

51:                                               ; preds = %spl_dllist_object_get_debug_info.exit, %7
  ret void
}